BL51 BANKED LINKER/LOCATER V6.22.2.0                                                    03/20/2023  19:40:14  PAGE 1


BL51 BANKED LINKER/LOCATER V6.22.2.0, INVOKED BY:
D:\KEILC51\KEILC51\C51\BIN\BL51.EXE .\Objects\STARTUP.obj, .\Objects\main.obj, .\Objects\oled.obj, .\Objects\ADC.obj, .\
>> Objects\Soft_UART.obj TO .\Objects\51test PRINT (.\Listings\51test.m51) RAMSIZE (256)


MEMORY MODEL: SMALL WITH FLOATING POINT ARITHMETIC


INPUT MODULES INCLUDED:
  .\Objects\STARTUP.obj (?C_STARTUP)
  .\Objects\main.obj (MAIN)
  .\Objects\oled.obj (OLED)
  .\Objects\ADC.obj (ADC)
  .\Objects\Soft_UART.obj (SOFT_UART)
  D:\KEILC51\KEILC51\C51\LIB\C51FPS.LIB (?C?FPADD)
  D:\KEILC51\KEILC51\C51\LIB\C51FPS.LIB (?C?FPMUL)
  D:\KEILC51\KEILC51\C51\LIB\C51FPS.LIB (?C?FCAST)
  D:\KEILC51\KEILC51\C51\LIB\C51FPS.LIB (?C?CASTF)
  D:\KEILC51\KEILC51\C51\LIB\C51FPS.LIB (?C?FPGETOPN)
  D:\KEILC51\KEILC51\C51\LIB\C51S.LIB (?C?CLDPTR)
  D:\KEILC51\KEILC51\C51\LIB\C51S.LIB (?C?CLDOPTR)
  D:\KEILC51\KEILC51\C51\LIB\C51S.LIB (?C?IMUL)
  D:\KEILC51\KEILC51\C51\LIB\C51S.LIB (?C?UIDIV)
  D:\KEILC51\KEILC51\C51\LIB\C51S.LIB (?C?LNEG)


LINK MAP OF MODULE:  .\Objects\51test (?C_STARTUP)


            TYPE    BASE      LENGTH    RELOCATION   SEGMENT NAME
            -----------------------------------------------------

            * * * * * * *   D A T A   M E M O R Y   * * * * * * *
            REG     0000H     0008H     ABSOLUTE     "REG BANK 0"
            DATA    0008H     0014H     UNIT         _DATA_GROUP_
            DATA    001CH     000BH     UNIT         ?DT?_OLED_DRAWBMP?OLED
            DATA    0027H     0009H     UNIT         ?DT?_OLED_NUM?OLED
            DATA    0030H     0007H     UNIT         ?DT?_OLED_SHOWSTRING?OLED
            DATA    0037H     0004H     UNIT         ?DT?_OLED_SHOWCHINESE?OLED
            DATA    003BH     0002H     UNIT         ?DT?MAIN
            DATA    003DH     0002H     UNIT         ?DT?_FILL_PICTURE?OLED
            DATA    003FH     0001H     UNIT         ?DT?OLED_ON?OLED
            IDATA   0040H     0001H     UNIT         ?STACK

            * * * * * * *   C O D E   M E M O R Y   * * * * * * *
            CODE    0000H     0003H     ABSOLUTE     
            CODE    0003H     0003H     ABSOLUTE     
            CODE    0006H     0023H     UNIT         ?PR?_FILL_PICTURE?OLED
                    0029H     0002H                  *** GAP ***
            CODE    002BH     0003H     ABSOLUTE     
            CODE    002EH     0898H     UNIT         ?CO?OLED
            CODE    08C6H     0378H     UNIT         ?C?LIB_CODE
            CODE    0C3EH     012CH     UNIT         ?PR?_OLED_NUMF?OLED
            CODE    0D6AH     00E0H     UNIT         ?PR?OLED_INIT?OLED
            CODE    0E4AH     00BEH     UNIT         ?PR?_OLED_SHOWCHAR?OLED
            CODE    0F08H     0076H     UNIT         ?PR?_OLED_NUM?OLED
            CODE    0F7EH     0070H     UNIT         ?PR?_OLED_SHOWCHINESE?OLED
            CODE    0FEEH     0069H     UNIT         ?PR?_OLED_DRAWBMP?OLED
BL51 BANKED LINKER/LOCATER V6.22.2.0                                                  03/20/2023  19:40:14  PAGE 2


            CODE    1057H     005DH     UNIT         ?PR?_GET_ADC10BITRESULT?ADC
            CODE    10B4H     0053H     UNIT         ?PR?_ADC_INILIZE?ADC
            CODE    1107H     0052H     UNIT         ?PR?MAIN?MAIN
            CODE    1159H     0040H     UNIT         ?PR?_OLED_SHOWSTRING?OLED
            CODE    1199H     002CH     UNIT         ?PR?_OLED_WR_BYTE?OLED
            CODE    11C5H     002CH     UNIT         ?PR?_OLED_SET_POS?OLED
            CODE    11F1H     002AH     UNIT         ?PR?_TXSEND?SOFT_UART
            CODE    121BH     0026H     UNIT         ?PR?_WRITE_IIC_BYTE?OLED
            CODE    1241H     0021H     UNIT         ?PR?OLED_ON?OLED
            CODE    1262H     0020H     UNIT         ?PR?OLED_CLEAR?OLED
            CODE    1282H     001EH     UNIT         ?PR?_DELAY_50MS?OLED
            CODE    12A0H     001DH     UNIT         ?PR?ADC_CONFIG?MAIN
            CODE    12BDH     001CH     UNIT         ?PR?_OLED_POW?OLED
            CODE    12D9H     0017H     UNIT         ?PR?OLED_DISPLAY_ON?OLED
            CODE    12F0H     0016H     UNIT         ?PR?_DELAY_1MS?OLED
            CODE    1306H     0011H     UNIT         ?PR?OLED_DISPLAY_OFF?OLED
            CODE    1317H     0010H     UNIT         ?PR?IIC_WAIT_ACK?OLED
            CODE    1327H     0010H     UNIT         ?PR?_PRINTSTRING?SOFT_UART
            CODE    1337H     000EH     UNIT         ?PR?_WRITE_IIC_COMMAND?OLED
            CODE    1345H     000EH     UNIT         ?PR?_WRITE_IIC_DATA?OLED
            CODE    1353H     000EH     UNIT         ?PR?BITTIME?SOFT_UART
            CODE    1361H     000CH     UNIT         ?C_C51STARTUP
            CODE    136DH     000BH     UNIT         ?PR?_ADC_POWERCONTROL?ADC
            CODE    1378H     0009H     UNIT         ?PR?DLY10MS?MAIN
            CODE    1381H     0009H     UNIT         ?PR?IIC_START?OLED
            CODE    138AH     0007H     UNIT         ?PR?IIC_STOP?OLED
            CODE    1391H     0004H     UNIT         ?PR?ADC_INT?ADC
            CODE    1395H     0003H     UNIT         ?CO?MAIN



OVERLAY MAP OF MODULE:   .\Objects\51test (?C_STARTUP)


SEGMENT                               DATA_GROUP 
  +--> CALLED SEGMENT               START    LENGTH
---------------------------------------------------
?C_C51STARTUP                       -----    -----
  +--> ?PR?MAIN?MAIN

?PR?MAIN?MAIN                       -----    -----
  +--> ?PR?ADC_CONFIG?MAIN
  +--> ?PR?OLED_INIT?OLED
  +--> ?PR?_DELAY_1MS?OLED
  +--> ?PR?OLED_CLEAR?OLED
  +--> ?PR?_GET_ADC10BITRESULT?ADC
  +--> ?PR?_OLED_NUMF?OLED
  +--> ?CO?MAIN
  +--> ?PR?_PRINTSTRING?SOFT_UART
  +--> ?PR?_DELAY_50MS?OLED

?PR?ADC_CONFIG?MAIN                 0008H    0006H
  +--> ?PR?_ADC_INILIZE?ADC
  +--> ?PR?_ADC_POWERCONTROL?ADC

?PR?OLED_INIT?OLED                  -----    -----
  +--> ?PR?_OLED_WR_BYTE?OLED
BL51 BANKED LINKER/LOCATER V6.22.2.0                                                  03/20/2023  19:40:14  PAGE 3



?PR?_OLED_WR_BYTE?OLED              -----    -----
  +--> ?PR?_WRITE_IIC_DATA?OLED
  +--> ?PR?_WRITE_IIC_COMMAND?OLED

?PR?_WRITE_IIC_DATA?OLED            -----    -----
  +--> ?PR?_WRITE_IIC_BYTE?OLED
  +--> ?PR?IIC_WAIT_ACK?OLED
  +--> ?PR?IIC_STOP?OLED

?PR?_WRITE_IIC_BYTE?OLED            -----    -----
  +--> ?PR?IIC_START?OLED

?PR?IIC_WAIT_ACK?OLED               -----    -----
  +--> ?PR?_WRITE_IIC_BYTE?OLED

?PR?_WRITE_IIC_COMMAND?OLED         -----    -----
  +--> ?PR?_WRITE_IIC_BYTE?OLED
  +--> ?PR?IIC_WAIT_ACK?OLED
  +--> ?PR?IIC_STOP?OLED

?PR?OLED_CLEAR?OLED                 0008H    0001H
  +--> ?PR?_OLED_WR_BYTE?OLED

?PR?_OLED_NUMF?OLED                 0008H    000FH
  +--> ?PR?_OLED_POW?OLED
  +--> ?PR?_OLED_SHOWCHAR?OLED

?PR?_OLED_POW?OLED                  0017H    0001H

?PR?_OLED_SHOWCHAR?OLED             0017H    0005H
  +--> ?PR?_OLED_SET_POS?OLED
  +--> ?CO?OLED
  +--> ?PR?_OLED_WR_BYTE?OLED

?PR?_OLED_SET_POS?OLED              -----    -----
  +--> ?PR?_OLED_WR_BYTE?OLED

?PR?_PRINTSTRING?SOFT_UART          -----    -----
  +--> ?PR?_TXSEND?SOFT_UART

?PR?_TXSEND?SOFT_UART               -----    -----
  +--> ?PR?BITTIME?SOFT_UART



SYMBOL TABLE OF MODULE:  .\Objects\51test (?C_STARTUP)

  VALUE           TYPE          NAME
  ----------------------------------

  -------         MODULE        ?C_STARTUP
  C:1361H         SEGMENT       ?C_C51STARTUP
  I:0040H         SEGMENT       ?STACK
  C:0000H         PUBLIC        ?C_STARTUP
  D:00E0H         SYMBOL        ACC
  D:00F0H         SYMBOL        B
BL51 BANKED LINKER/LOCATER V6.22.2.0                                                  03/20/2023  19:40:14  PAGE 4


  D:0083H         SYMBOL        DPH
  D:0082H         SYMBOL        DPL
  N:0000H         SYMBOL        IBPSTACK
  N:0100H         SYMBOL        IBPSTACKTOP
  N:0080H         SYMBOL        IDATALEN
  C:1364H         SYMBOL        IDATALOOP
  N:0000H         SYMBOL        PBPSTACK
  N:0100H         SYMBOL        PBPSTACKTOP
  N:0000H         SYMBOL        PDATALEN
  N:0000H         SYMBOL        PDATASTART
  N:0000H         SYMBOL        PPAGE
  N:0000H         SYMBOL        PPAGEENABLE
  D:00A0H         SYMBOL        PPAGE_SFR
  D:0081H         SYMBOL        SP
  C:1361H         SYMBOL        STARTUP1
  N:0000H         SYMBOL        XBPSTACK
  N:0000H         SYMBOL        XBPSTACKTOP
  N:0000H         SYMBOL        XDATALEN
  N:0000H         SYMBOL        XDATASTART
  C:0000H         LINE#         126
  C:1361H         LINE#         133
  C:1363H         LINE#         134
  C:1364H         LINE#         135
  C:1365H         LINE#         136
  C:1367H         LINE#         185
  C:136AH         LINE#         196
  -------         ENDMOD        ?C_STARTUP

  -------         MODULE        MAIN
  C:0000H         SYMBOL        _ICE_DUMMY_
  D:0080H         PUBLIC        P0
  D:0090H         PUBLIC        P1
  D:00A0H         PUBLIC        P2
  D:00B0H         PUBLIC        P3
  D:00C0H         PUBLIC        P4
  D:00C8H         PUBLIC        P5
  B:00A8H.7       PUBLIC        EA
  C:1378H         PUBLIC        dly10ms
  D:00A8H         PUBLIC        IE
  D:00B8H         PUBLIC        IP
  C:12A0H         PUBLIC        ADC_config
  D:00D8H         PUBLIC        CCON
  C:1107H         PUBLIC        main
  D:0098H         PUBLIC        SCON
  D:0089H         PUBLIC        TMOD
  D:0088H         PUBLIC        TCON
  D:003BH         PUBLIC        ang
  D:00F0H         PUBLIC        B
  D:00E0H         PUBLIC        ACC
  B:00A8H.1       PUBLIC        ET0
  D:008CH         PUBLIC        TH0
  D:008AH         PUBLIC        TL0
  D:003CH         PUBLIC        num
  D:00D0H         PUBLIC        PSW
  -------         PROC          MAIN
  C:1107H         LINE#         21
  C:1107H         LINE#         22
BL51 BANKED LINKER/LOCATER V6.22.2.0                                                  03/20/2023  19:40:14  PAGE 5


  C:1107H         LINE#         23
  C:110AH         LINE#         26
  C:110DH         LINE#         27
  C:110FH         LINE#         28
  C:1111H         LINE#         29
  C:1114H         LINE#         30
  C:1117H         LINE#         31
  C:111AH         LINE#         32
  C:111DH         LINE#         33
  C:1124H         LINE#         34
  C:1127H         LINE#         35
  C:1127H         LINE#         36
  C:1127H         LINE#         37
  C:112EH         LINE#         41
  C:1149H         LINE#         51
  C:1150H         LINE#         56
  C:1157H         LINE#         58
  -------         ENDPROC       MAIN
  -------         PROC          DLY10MS
  C:1378H         LINE#         113
  C:1378H         LINE#         115
  C:137BH         LINE#         116
  C:137EH         LINE#         117
  C:1380H         LINE#         118
  -------         ENDPROC       DLY10MS
  -------         PROC          ADC_CONFIG
  -------         DO            
  D:0008H         SYMBOL        ADC_InitStructure
  -------         ENDDO         
  C:12A0H         LINE#         120
  C:12A0H         LINE#         121
  C:12A0H         LINE#         123
  C:12A3H         LINE#         124
  C:12A6H         LINE#         125
  C:12A9H         LINE#         126
  C:12ACH         LINE#         127
  C:12AEH         LINE#         128
  C:12B0H         LINE#         129
  C:12B8H         LINE#         130
  -------         ENDPROC       ADC_CONFIG
  -------         ENDMOD        MAIN

  -------         MODULE        OLED
  C:0000H         SYMBOL        _ICE_DUMMY_
  C:12D9H         PUBLIC        OLED_Display_On
  D:0080H         PUBLIC        P0
  D:0090H         PUBLIC        P1
  D:00A0H         PUBLIC        P2
  D:00B0H         PUBLIC        P3
  D:00C0H         PUBLIC        P4
  D:00C8H         PUBLIC        P5
  C:0006H         PUBLIC        _fill_picture
  D:00A8H         PUBLIC        IE
  C:1282H         PUBLIC        _Delay_50ms
  D:00B8H         PUBLIC        IP
  C:0D6AH         PUBLIC        OLED_Init
  C:1345H         PUBLIC        _Write_IIC_Data
BL51 BANKED LINKER/LOCATER V6.22.2.0                                                  03/20/2023  19:40:14  PAGE 6


  D:00D8H         PUBLIC        CCON
  C:1159H         PUBLIC        _OLED_ShowString
  C:11B4H         PUBLIC        _OLED_WR_Byte
  C:0E4AH         PUBLIC        _OLED_ShowChar
  C:002EH         PUBLIC        F6x8
  C:0846H         PUBLIC        Hzk
  D:0098H         PUBLIC        SCON
  B:00C0H.2       PUBLIC        OLED_SDIN
  D:0088H         PUBLIC        TCON
  C:1222H         PUBLIC        _Write_IIC_Byte
  C:0256H         PUBLIC        F8X16
  C:1322H         PUBLIC        IIC_Wait_Ack
  C:0C3EH         PUBLIC        _OLED_numf
  D:00F0H         PUBLIC        B
  C:1241H         PUBLIC        OLED_On
  C:1381H         PUBLIC        IIC_Start
  C:11C5H         PUBLIC        _OLED_Set_Pos
  D:00E0H         PUBLIC        ACC
  C:0F7EH         PUBLIC        _OLED_ShowCHinese
  C:0F08H         PUBLIC        _OLED_num
  C:1306H         PUBLIC        OLED_Display_Off
  C:12C1H         PUBLIC        _oled_pow
  C:138AH         PUBLIC        IIC_Stop
  C:12F0H         PUBLIC        _Delay_1ms
  C:1337H         PUBLIC        _Write_IIC_Command
  B:00C0H.1       PUBLIC        OLED_SCL
  C:1262H         PUBLIC        OLED_Clear
  C:0FEEH         PUBLIC        _OLED_DrawBMP
  D:00D0H         PUBLIC        PSW
  -------         PROC          _DELAY_50MS
  D:0006H         SYMBOL        Del_50ms
  -------         DO            
  D:0004H         SYMBOL        m
  -------         ENDDO         
  C:1282H         LINE#         17
  C:1282H         LINE#         18
  C:1282H         LINE#         20
  C:128BH         LINE#         21
  C:129FH         LINE#         22
  -------         ENDPROC       _DELAY_50MS
  -------         PROC          _DELAY_1MS
  D:0006H         SYMBOL        Del_1ms
  -------         DO            
  D:0005H         SYMBOL        j
  -------         ENDDO         
  C:12F0H         LINE#         24
  C:12F0H         LINE#         25
  C:12F0H         LINE#         27
  C:12FAH         LINE#         28
  C:12FAH         LINE#         29
  C:1305H         LINE#         30
  C:1305H         LINE#         31
  -------         ENDPROC       _DELAY_1MS
  -------         PROC          IIC_START
  C:1381H         LINE#         37
  C:1381H         LINE#         38
  C:1381H         LINE#         39
BL51 BANKED LINKER/LOCATER V6.22.2.0                                                  03/20/2023  19:40:14  PAGE 7


  C:1383H         LINE#         40
  C:1385H         LINE#         41
  C:1387H         LINE#         42
  C:1389H         LINE#         43
  -------         ENDPROC       IIC_START
  -------         PROC          IIC_STOP
  C:138AH         LINE#         48
  C:138AH         LINE#         49
  C:138AH         LINE#         50
  C:138CH         LINE#         51
  C:138EH         LINE#         52
  C:1390H         LINE#         53
  -------         ENDPROC       IIC_STOP
  -------         PROC          L?0117
  -------         ENDPROC       L?0117
  -------         PROC          IIC_WAIT_ACK
  C:1322H         LINE#         55
  C:1322H         LINE#         56
  C:1322H         LINE#         57
  C:1324H         LINE#         58
  C:1326H         LINE#         59
  -------         ENDPROC       IIC_WAIT_ACK
  -------         PROC          L?0118
  -------         ENDPROC       L?0118
  -------         PROC          _WRITE_IIC_BYTE
  D:0007H         SYMBOL        IIC_Byte
  -------         DO            
  D:0006H         SYMBOL        i
  D:0005H         SYMBOL        m
  D:0007H         SYMBOL        da
  -------         ENDDO         
  C:1222H         LINE#         64
  C:1222H         LINE#         65
  C:1222H         LINE#         68
  C:1222H         LINE#         69
  C:1224H         LINE#         70
  C:1226H         LINE#         71
  C:1226H         LINE#         72
  C:1228H         LINE#         74
  C:122BH         LINE#         75
  C:122EH         LINE#         76
  C:1232H         LINE#         77
  C:1234H         LINE#         78
  C:1238H         LINE#         79
  C:123AH         LINE#         80
  C:123CH         LINE#         81
  C:1240H         LINE#         82
  -------         ENDPROC       _WRITE_IIC_BYTE
  -------         PROC          _WRITE_IIC_COMMAND
  D:0004H         SYMBOL        IIC_Command
  C:1337H         LINE#         87
  C:1337H         LINE#         88
  C:1337H         LINE#         89
  C:1337H         LINE#         90
  C:133AH         LINE#         91
  C:133DH         LINE#         92
  C:133FH         LINE#         93
BL51 BANKED LINKER/LOCATER V6.22.2.0                                                  03/20/2023  19:40:14  PAGE 8


  C:133FH         LINE#         94
  C:133FH         LINE#         95
  C:1342H         LINE#         96
  -------         ENDPROC       _WRITE_IIC_COMMAND
  -------         PROC          _WRITE_IIC_DATA
  D:0004H         SYMBOL        IIC_Data
  C:1345H         LINE#         101
  C:1345H         LINE#         102
  C:1345H         LINE#         103
  C:1345H         LINE#         104
  C:1348H         LINE#         105
  C:134BH         LINE#         106
  C:134DH         LINE#         107
  C:134DH         LINE#         108
  C:134DH         LINE#         109
  C:1350H         LINE#         110
  -------         ENDPROC       _WRITE_IIC_DATA
  C:1199H         SYMBOL        L?0113
  C:11A3H         SYMBOL        L?0114
  C:11AAH         SYMBOL        L?0115
  C:11B0H         SYMBOL        L?0116
  -------         PROC          L?0112
  -------         ENDPROC       L?0112
  C:1199H         SYMBOL        L?0113
  C:11A3H         SYMBOL        L?0114
  C:11AAH         SYMBOL        L?0115
  C:11B0H         SYMBOL        L?0116
  -------         PROC          _OLED_WR_BYTE
  D:0002H         SYMBOL        dat
  D:0004H         SYMBOL        cmd
  C:11B4H         LINE#         112
  C:11B8H         LINE#         113
  C:11B8H         LINE#         114
  C:11BCH         LINE#         115
  C:11BCH         LINE#         116
  C:11BFH         LINE#         117
  C:11BFH         LINE#         119
  C:11BFH         LINE#         120
  C:11C4H         LINE#         121
  C:11C4H         LINE#         122
  -------         ENDPROC       _OLED_WR_BYTE
  -------         PROC          _FILL_PICTURE
  D:003DH         SYMBOL        fill_Data
  -------         DO            
  D:0001H         SYMBOL        m
  D:003EH         SYMBOL        n
  -------         ENDDO         
  C:0006H         LINE#         127
  C:0008H         LINE#         128
  C:0008H         LINE#         130
  C:000AH         LINE#         131
  C:000AH         LINE#         132
  C:000AH         LINE#         133
  C:000AH         LINE#         134
  C:000DH         LINE#         135
  C:0010H         LINE#         136
  C:0010H         LINE#         137
BL51 BANKED LINKER/LOCATER V6.22.2.0                                                  03/20/2023  19:40:14  PAGE 9


  C:001BH         LINE#         138
  C:0024H         LINE#         139
  C:0028H         LINE#         140
  -------         ENDPROC       _FILL_PICTURE
  -------         PROC          _OLED_SET_POS
  D:0001H         SYMBOL        x
  D:0005H         SYMBOL        y
  C:11C5H         LINE#         144
  C:11C7H         LINE#         145
  C:11D4H         LINE#         146
  C:11E5H         LINE#         147
  -------         ENDPROC       _OLED_SET_POS
  -------         PROC          OLED_DISPLAY_ON
  C:12D9H         LINE#         151
  C:12D9H         LINE#         152
  C:12D9H         LINE#         153
  C:12DEH         LINE#         154
  C:12E7H         LINE#         155
  -------         ENDPROC       OLED_DISPLAY_ON
  -------         PROC          OLED_DISPLAY_OFF
  C:1306H         LINE#         159
  C:1306H         LINE#         160
  C:1306H         LINE#         161
  C:130BH         LINE#         162
  C:130EH         LINE#         163
  -------         ENDPROC       OLED_DISPLAY_OFF
  -------         PROC          OLED_CLEAR
  -------         DO            
  D:0001H         SYMBOL        i
  D:0008H         SYMBOL        n
  -------         ENDDO         
  C:1262H         LINE#         167
  C:1262H         LINE#         168
  C:1262H         LINE#         170
  C:1264H         LINE#         171
  C:1264H         LINE#         172
  C:1264H         LINE#         173
  C:1264H         LINE#         174
  C:1267H         LINE#         175
  C:127DH         LINE#         176
  C:1281H         LINE#         177
  -------         ENDPROC       OLED_CLEAR
  -------         PROC          OLED_ON
  -------         DO            
  D:0001H         SYMBOL        i
  D:003FH         SYMBOL        n
  -------         ENDDO         
  C:1241H         LINE#         179
  C:1241H         LINE#         180
  C:1241H         LINE#         182
  C:1243H         LINE#         183
  C:1243H         LINE#         184
  C:1243H         LINE#         185
  C:1243H         LINE#         186
  C:1246H         LINE#         187
  C:125DH         LINE#         188
  C:1261H         LINE#         189
BL51 BANKED LINKER/LOCATER V6.22.2.0                                                  03/20/2023  19:40:14  PAGE 10


  -------         ENDPROC       OLED_ON
  -------         PROC          _OLED_SHOWCHAR
  D:0017H         SYMBOL        x
  D:0018H         SYMBOL        y
  D:0003H         SYMBOL        chr
  D:001AH         SYMBOL        Char_Size
  -------         DO            
  D:001BH         SYMBOL        c
  D:0001H         SYMBOL        i
  -------         ENDDO         
  C:0E4AH         LINE#         196
  C:0E4EH         LINE#         197
  C:0E4EH         LINE#         198
  C:0E52H         LINE#         199
  C:0E57H         LINE#         200
  C:0E65H         LINE#         201
  C:0E6BH         LINE#         202
  C:0E6BH         LINE#         203
  C:0E72H         LINE#         204
  C:0E74H         LINE#         205
  C:0E9EH         LINE#         206
  C:0EA7H         LINE#         207
  C:0EA9H         LINE#         208
  C:0ED4H         LINE#         209
  C:0ED4H         LINE#         210
  C:0ED4H         LINE#         211
  C:0EDBH         LINE#         212
  C:0EDDH         LINE#         213
  C:0F07H         LINE#         215
  C:0F07H         LINE#         216
  -------         ENDPROC       _OLED_SHOWCHAR
  -------         PROC          _OLED_SHOWSTRING
  D:0030H         SYMBOL        x
  D:0031H         SYMBOL        y
  D:0032H         SYMBOL        chr
  D:0035H         SYMBOL        Char_Size
  -------         DO            
  D:0036H         SYMBOL        j
  -------         ENDDO         
  C:1159H         LINE#         218
  C:1163H         LINE#         219
  C:1163H         LINE#         220
  C:1166H         LINE#         221
  C:1178H         LINE#         222
  C:1182H         LINE#         223
  C:1188H         LINE#         224
  C:1194H         LINE#         225
  C:1196H         LINE#         226
  C:1198H         LINE#         227
  -------         ENDPROC       _OLED_SHOWSTRING
  -------         PROC          L?0119
  -------         ENDPROC       L?0119
  -------         PROC          _OLED_POW
  D:0017H         SYMBOL        m
  D:0001H         SYMBOL        n
  -------         DO            
  D:0006H         SYMBOL        result
BL51 BANKED LINKER/LOCATER V6.22.2.0                                                  03/20/2023  19:40:14  PAGE 11


  -------         ENDDO         
  C:12C1H         LINE#         229
  C:12C5H         LINE#         230
  C:12C5H         LINE#         231
  C:12C9H         LINE#         232
  C:12D8H         LINE#         233
  C:12D8H         LINE#         234
  -------         ENDPROC       _OLED_POW
  -------         PROC          _OLED_NUM
  D:0027H         SYMBOL        x
  D:0028H         SYMBOL        y
  D:0029H         SYMBOL        num
  D:002BH         SYMBOL        len
  D:002CH         SYMBOL        size2
  -------         DO            
  D:002DH         SYMBOL        t
  D:002EH         SYMBOL        temp
  D:002FH         SYMBOL        enshow
  -------         ENDDO         
  C:0F08H         LINE#         242
  C:0F10H         LINE#         243
  C:0F10H         LINE#         245
  C:0F13H         LINE#         246
  C:0F1CH         LINE#         247
  C:0F1CH         LINE#         248
  C:0F3AH         LINE#         249
  C:0F48H         LINE#         250
  C:0F48H         LINE#         251
  C:0F4CH         LINE#         252
  C:0F4CH         LINE#         253
  C:0F5CH         LINE#         254
  C:0F5EH         LINE#         255
  C:0F61H         LINE#         257
  C:0F61H         LINE#         258
  C:0F79H         LINE#         259
  C:0F7DH         LINE#         260
  -------         ENDPROC       _OLED_NUM
  -------         PROC          _OLED_NUMF
  D:0008H         SYMBOL        x
  D:0009H         SYMBOL        y
  D:000AH         SYMBOL        num
  D:000EH         SYMBOL        len
  D:000FH         SYMBOL        size2
  -------         DO            
  D:0010H         SYMBOL        num1
  D:0012H         SYMBOL        num2
  D:0014H         SYMBOL        t
  D:0015H         SYMBOL        temp
  D:0016H         SYMBOL        enshow
  -------         ENDDO         
  C:0C3EH         LINE#         262
  C:0C42H         LINE#         263
  C:0C42H         LINE#         266
  C:0C45H         LINE#         267
  C:0C54H         LINE#         268
  C:0C9BH         LINE#         269
  C:0CA5H         LINE#         270
BL51 BANKED LINKER/LOCATER V6.22.2.0                                                  03/20/2023  19:40:14  PAGE 12


  C:0CA5H         LINE#         271
  C:0CC3H         LINE#         272
  C:0CD1H         LINE#         273
  C:0CD1H         LINE#         274
  C:0CD5H         LINE#         275
  C:0CD5H         LINE#         276
  C:0CE5H         LINE#         277
  C:0CE7H         LINE#         278
  C:0CEAH         LINE#         280
  C:0CEAH         LINE#         281
  C:0D02H         LINE#         282
  C:0D06H         LINE#         283
  C:0D09H         LINE#         284
  C:0D09H         LINE#         285
  C:0D2AH         LINE#         286
  C:0D4CH         LINE#         287
  C:0D55H         LINE#         288
  -------         ENDPROC       _OLED_NUMF
  -------         PROC          _OLED_SHOWCHINESE
  D:0037H         SYMBOL        x
  D:0038H         SYMBOL        y
  D:0039H         SYMBOL        no
  -------         DO            
  D:0001H         SYMBOL        t
  D:003AH         SYMBOL        adder
  -------         ENDDO         
  C:0F7EH         LINE#         292
  C:0F84H         LINE#         293
  C:0F84H         LINE#         294
  C:0F87H         LINE#         295
  C:0F8AH         LINE#         296
  C:0F8CH         LINE#         297
  C:0F8CH         LINE#         298
  C:0FB1H         LINE#         299
  C:0FB3H         LINE#         300
  C:0FB7H         LINE#         301
  C:0FC0H         LINE#         302
  C:0FC2H         LINE#         303
  C:0FC2H         LINE#         304
  C:0FE7H         LINE#         305
  C:0FE9H         LINE#         306
  C:0FEDH         LINE#         307
  -------         ENDPROC       _OLED_SHOWCHINESE
  -------         PROC          _OLED_DRAWBMP
  D:001CH         SYMBOL        x0
  D:0005H         SYMBOL        y0
  D:001EH         SYMBOL        x1
  D:001FH         SYMBOL        y1
  D:0020H         SYMBOL        BMP
  -------         DO            
  D:0023H         SYMBOL        j
  D:0025H         SYMBOL        x
  D:0026H         SYMBOL        y
  -------         ENDDO         
  C:0FEEH         LINE#         310
  C:0FF2H         LINE#         311
  C:0FF2H         LINE#         312
BL51 BANKED LINKER/LOCATER V6.22.2.0                                                  03/20/2023  19:40:14  PAGE 13


  C:0FF7H         LINE#         315
  C:1008H         LINE#         316
  C:1012H         LINE#         317
  C:101BH         LINE#         318
  C:101BH         LINE#         319
  C:1022H         LINE#         320
  C:102CH         LINE#         321
  C:102CH         LINE#         322
  C:104EH         LINE#         323
  C:1052H         LINE#         324
  C:1056H         LINE#         325
  -------         ENDPROC       _OLED_DRAWBMP
  -------         PROC          OLED_INIT
  C:0D6AH         LINE#         328
  C:0D6AH         LINE#         329
  C:0D6AH         LINE#         331
  C:0D70H         LINE#         332
  C:0D70H         LINE#         333
  C:0D73H         LINE#         334
  C:0D7CH         LINE#         335
  C:0D85H         LINE#         336
  C:0D8EH         LINE#         337
  C:0D97H         LINE#         338
  C:0DA0H         LINE#         339
  C:0DA9H         LINE#         340
  C:0DB2H         LINE#         341
  C:0DBBH         LINE#         342
  C:0DC4H         LINE#         343
  C:0DCDH         LINE#         344
  C:0DD5H         LINE#         346
  C:0DDEH         LINE#         347
  C:0DE7H         LINE#         349
  C:0DF0H         LINE#         350
  C:0DF9H         LINE#         352
  C:0E02H         LINE#         353
  C:0E0BH         LINE#         355
  C:0E14H         LINE#         356
  C:0E1DH         LINE#         358
  C:0E26H         LINE#         359
  C:0E2FH         LINE#         361
  C:0E38H         LINE#         362
  C:0E41H         LINE#         364
  -------         ENDPROC       OLED_INIT
  -------         ENDMOD        OLED

  -------         MODULE        ADC
  C:0000H         SYMBOL        _ICE_DUMMY_
  D:0080H         PUBLIC        P0
  D:0090H         PUBLIC        P1
  C:10B4H         PUBLIC        _ADC_Inilize
  D:00A0H         PUBLIC        P2
  D:00B0H         PUBLIC        P3
  D:00C0H         PUBLIC        P4
  D:00C8H         PUBLIC        P5
  B:00A8H.5       PUBLIC        EADC
  D:00A8H         PUBLIC        IE
  D:00BDH         PUBLIC        ADC_RES
BL51 BANKED LINKER/LOCATER V6.22.2.0                                                  03/20/2023  19:40:14  PAGE 14


  B:00B8H.5       PUBLIC        PADC
  D:00B8H         PUBLIC        IP
  C:136DH         PUBLIC        _ADC_PowerControl
  D:00D8H         PUBLIC        CCON
  D:00BCH         PUBLIC        ADC_CONTR
  D:0098H         PUBLIC        SCON
  D:0088H         PUBLIC        TCON
  D:00F0H         PUBLIC        B
  D:00E0H         PUBLIC        ACC
  D:009DH         PUBLIC        P1ASF
  D:00BEH         PUBLIC        ADC_RESL
  D:0097H         PUBLIC        PCON2
  C:1057H         PUBLIC        _Get_ADC10bitResult
  C:1391H         PUBLIC        ADC_int
  D:00D0H         PUBLIC        PSW
  -------         PROC          _ADC_INILIZE
  D:0001H         SYMBOL        ADCx
  C:10B4H         LINE#         13
  C:10B4H         LINE#         14
  C:10B4H         LINE#         15
  C:10B9H         LINE#         16
  C:10C7H         LINE#         17
  C:10D5H         LINE#         18
  C:10D8H         LINE#         19
  C:10E6H         LINE#         20
  C:10E9H         LINE#         21
  C:10F6H         LINE#         22
  C:10F8H         LINE#         23
  C:1104H         LINE#         24
  C:1106H         LINE#         25
  -------         ENDPROC       _ADC_INILIZE
  -------         PROC          _ADC_POWERCONTROL
  D:0007H         SYMBOL        pwr
  C:136DH         LINE#         35
  C:136DH         LINE#         36
  C:136DH         LINE#         37
  C:1374H         LINE#         38
  C:1377H         LINE#         39
  -------         ENDPROC       _ADC_POWERCONTROL
  -------         PROC          _GET_ADC10BITRESULT
  D:0007H         SYMBOL        channel
  -------         DO            
  D:0004H         SYMBOL        adc
  D:0003H         SYMBOL        i
  -------         ENDDO         
  C:1057H         LINE#         48
  C:1057H         LINE#         49
  C:1057H         LINE#         53
  C:105FH         LINE#         54
  C:1062H         LINE#         55
  C:1064H         LINE#         57
  C:106DH         LINE#         58
  C:1071H         LINE#         60
  C:1073H         LINE#         61
  C:1073H         LINE#         62
  C:1078H         LINE#         63
  C:1078H         LINE#         64
BL51 BANKED LINKER/LOCATER V6.22.2.0                                                  03/20/2023  19:40:14  PAGE 15


  C:107BH         LINE#         65
  C:1080H         LINE#         66
  C:1080H         LINE#         67
  C:1084H         LINE#         68
  C:1087H         LINE#         69
  C:1089H         LINE#         71
  C:1089H         LINE#         72
  C:108FH         LINE#         73
  C:10A6H         LINE#         74
  C:10A6H         LINE#         75
  C:10ABH         LINE#         76
  C:10ABH         LINE#         77
  C:10AFH         LINE#         78
  C:10B3H         LINE#         79
  -------         ENDPROC       _GET_ADC10BITRESULT
  -------         PROC          ADC_INT
  C:1391H         LINE#         89
  C:1391H         LINE#         91
  C:1394H         LINE#         92
  -------         ENDPROC       ADC_INT
  -------         ENDMOD        ADC

  -------         MODULE        SOFT_UART
  C:0000H         SYMBOL        _ICE_DUMMY_
  D:0080H         PUBLIC        P0
  D:0090H         PUBLIC        P1
  D:00A0H         PUBLIC        P2
  D:00B0H         PUBLIC        P3
  D:00C0H         PUBLIC        P4
  D:00C8H         PUBLIC        P5
  B:00A8H.7       PUBLIC        EA
  C:1327H         PUBLIC        _PrintString
  D:00A8H         PUBLIC        IE
  D:00B8H         PUBLIC        IP
  B:00B0H.1       PUBLIC        P_TXD
  D:00D8H         PUBLIC        CCON
  C:1353H         PUBLIC        BitTime
  D:0098H         PUBLIC        SCON
  D:0088H         PUBLIC        TCON
  D:00F0H         PUBLIC        B
  D:00E0H         PUBLIC        ACC
  C:11F1H         PUBLIC        _TxSend
  D:00D0H         PUBLIC        PSW
  -------         PROC          BITTIME
  -------         DO            
  D:0006H         SYMBOL        i
  -------         ENDDO         
  C:1353H         LINE#         37
  C:1353H         LINE#         38
  C:1353H         LINE#         40
  C:1357H         LINE#         41
  C:1360H         LINE#         42
  -------         ENDPROC       BITTIME
  -------         PROC          _TXSEND
  D:0005H         SYMBOL        dat
  -------         DO            
  D:0004H         SYMBOL        i
BL51 BANKED LINKER/LOCATER V6.22.2.0                                                  03/20/2023  19:40:14  PAGE 16


  -------         ENDDO         
  C:11F1H         LINE#         53
  C:11F3H         LINE#         54
  C:11F3H         LINE#         56
  C:11F5H         LINE#         57
  C:11F7H         LINE#         58
  C:11FAH         LINE#         59
  C:11FCH         LINE#         60
  C:11FCH         LINE#         61
  C:1204H         LINE#         62
  C:1206H         LINE#         63
  C:120AH         LINE#         64
  C:120DH         LINE#         65
  C:1211H         LINE#         66
  C:1213H         LINE#         67
  C:1215H         LINE#         68
  C:1218H         LINE#         69
  -------         ENDPROC       _TXSEND
  -------         PROC          _PRINTSTRING
  D:0082H         SYMBOL        puts
  C:1327H         LINE#         81
  C:132BH         LINE#         82
  C:132BH         LINE#         83
  C:1336H         LINE#         84
  -------         ENDPROC       _PRINTSTRING
  -------         ENDMOD        SOFT_UART

  -------         MODULE        ?C?FPADD
  C:08CDH         PUBLIC        ?C?FPADD
  C:08C9H         PUBLIC        ?C?FPSUB
  -------         ENDMOD        ?C?FPADD

  -------         MODULE        ?C?FPMUL
  C:09BEH         PUBLIC        ?C?FPMUL
  -------         ENDMOD        ?C?FPMUL

  -------         MODULE        ?C?FCAST
  C:0ACEH         PUBLIC        ?C?FCASTC
  C:0AC9H         PUBLIC        ?C?FCASTI
  C:0AC4H         PUBLIC        ?C?FCASTL
  -------         ENDMOD        ?C?FCAST

  -------         MODULE        ?C?CASTF
  C:0B02H         PUBLIC        ?C?CASTF
  -------         ENDMOD        ?C?CASTF

  -------         MODULE        ?C?CLDPTR
  C:0B83H         PUBLIC        ?C?CLDPTR
  -------         ENDMOD        ?C?CLDPTR

  -------         MODULE        ?C?CLDOPTR
  C:0B9CH         PUBLIC        ?C?CLDOPTR
  -------         ENDMOD        ?C?CLDOPTR

  -------         MODULE        ?C?IMUL
  C:0BC9H         PUBLIC        ?C?IMUL
  -------         ENDMOD        ?C?IMUL
BL51 BANKED LINKER/LOCATER V6.22.2.0                                                  03/20/2023  19:40:14  PAGE 17



  -------         MODULE        ?C?UIDIV
  C:0BDBH         PUBLIC        ?C?UIDIV
  -------         ENDMOD        ?C?UIDIV

  -------         MODULE        ?C?LNEG
  C:0C30H         PUBLIC        ?C?LNEG
  -------         ENDMOD        ?C?LNEG

*** WARNING L16: UNCALLED SEGMENT, IGNORED FOR OVERLAY PROCESS
    SEGMENT: ?PR?_FILL_PICTURE?OLED

*** WARNING L16: UNCALLED SEGMENT, IGNORED FOR OVERLAY PROCESS
    SEGMENT: ?PR?OLED_DISPLAY_ON?OLED

*** WARNING L16: UNCALLED SEGMENT, IGNORED FOR OVERLAY PROCESS
    SEGMENT: ?PR?OLED_DISPLAY_OFF?OLED

*** WARNING L16: UNCALLED SEGMENT, IGNORED FOR OVERLAY PROCESS
    SEGMENT: ?PR?OLED_ON?OLED

*** WARNING L16: UNCALLED SEGMENT, IGNORED FOR OVERLAY PROCESS
    SEGMENT: ?PR?_OLED_SHOWSTRING?OLED

*** WARNING L16: UNCALLED SEGMENT, IGNORED FOR OVERLAY PROCESS
    SEGMENT: ?PR?_OLED_NUM?OLED

*** WARNING L16: UNCALLED SEGMENT, IGNORED FOR OVERLAY PROCESS
    SEGMENT: ?PR?_OLED_SHOWCHINESE?OLED

*** WARNING L16: UNCALLED SEGMENT, IGNORED FOR OVERLAY PROCESS
    SEGMENT: ?PR?_OLED_DRAWBMP?OLED

Program Size: data=65.0 xdata=0 code=5014
LINK/LOCATE RUN COMPLETE.  8 WARNING(S),  0 ERROR(S)
